Certificate:
    Data:
        Version: 3 (0x2)
        Serial Number: 1 (0x1)
        Signature Algorithm: ecdsa-with-SHA256
        Issuer: C=US, O=CriblStudio, OU=Training, CN=Training Root CA
        Validity
            Not Before: Jun 11 23:38:41 2024 GMT
            Not After : Jun 11 23:38:41 2034 GMT
        Subject: C=US, O=CriblStudio, OU=Training, CN=Training Root CA
        Subject Public Key Info:
            Public Key Algorithm: id-ecPublicKey
                Public-Key: (384 bit)
                pub:
                    04:96:66:7c:c3:38:72:11:f8:c6:9d:a5:cb:f9:86:
                    61:08:68:7a:60:d1:40:f5:4d:19:28:e4:68:62:5c:
                    0a:ef:2f:b8:89:b2:fd:34:00:4c:53:68:12:52:80:
                    42:ab:09:98:75:49:ec:e1:7b:1d:30:d8:15:23:5c:
                    49:a5:73:35:26:fa:97:11:a6:34:87:b9:12:fc:de:
                    f9:38:cb:b2:1c:59:42:c8:f0:00:a8:a6:dc:5b:3d:
                    94:26:cd:9e:9b:ae:18
                ASN1 OID: secp384r1
                NIST CURVE: P-384
        X509v3 extensions:
            X509v3 Key Usage: critical
                Certificate Sign, CRL Sign
            X509v3 Basic Constraints: critical
                CA:TRUE
            X509v3 Subject Key Identifier: 
                CD:D6:57:BC:2A:F6:68:40:08:9F:CE:53:A1:15:BB:16:06:91:F8:F1
            X509v3 Authority Key Identifier: 
                CD:D6:57:BC:2A:F6:68:40:08:9F:CE:53:A1:15:BB:16:06:91:F8:F1
            X509v3 Extended Key Usage: 
                TLS Web Server Authentication, TLS Web Client Authentication
    Signature Algorithm: ecdsa-with-SHA256
    Signature Value:
        30:65:02:31:00:a4:1d:06:00:3a:92:2d:0b:55:35:b4:3a:5f:
        88:b4:43:a7:84:1d:e3:02:f6:89:96:10:8f:67:0c:35:fb:f2:
        8d:ff:d4:6b:0a:7a:33:6b:88:99:45:a7:0d:4d:4b:1c:1f:02:
        30:09:8a:83:e1:88:86:7b:24:a0:cc:04:47:5b:2a:a2:4a:f5:
        96:4a:4a:04:2a:71:a3:ce:d1:d3:86:eb:e1:77:95:d0:3d:1f:
        31:39:e4:80:e6:90:c6:91:f3:88:f3:12:c1
-----BEGIN CERTIFICATE-----
MIICUjCCAdigAwIBAgIBATAKBggqhkjOPQQDAjBRMQswCQYDVQQGEwJVUzEUMBIG
A1UECgwLQ3JpYmxTdHVkaW8xETAPBgNVBAsMCFRyYWluaW5nMRkwFwYDVQQDDBBU
cmFpbmluZyBSb290IENBMB4XDTI0MDYxMTIzMzg0MVoXDTM0MDYxMTIzMzg0MVow
UTELMAkGA1UEBhMCVVMxFDASBgNVBAoMC0NyaWJsU3R1ZGlvMREwDwYDVQQLDAhU
cmFpbmluZzEZMBcGA1UEAwwQVHJhaW5pbmcgUm9vdCBDQTB2MBAGByqGSM49AgEG
BSuBBAAiA2IABJZmfMM4chH4xp2ly/mGYQhoemDRQPVNGSjkaGJcCu8vuImy/TQA
TFNoElKAQqsJmHVJ7OF7HTDYFSNcSaVzNSb6lxGmNIe5Evze+TjLshxZQsjwAKim
3Fs9lCbNnpuuGKOBgzCBgDAOBgNVHQ8BAf8EBAMCAQYwDwYDVR0TAQH/BAUwAwEB
/zAdBgNVHQ4EFgQUzdZXvCr2aEAIn85ToRW7FgaR+PEwHwYDVR0jBBgwFoAUzdZX
vCr2aEAIn85ToRW7FgaR+PEwHQYDVR0lBBYwFAYIKwYBBQUHAwEGCCsGAQUFBwMC
MAoGCCqGSM49BAMCA2gAMGUCMQCkHQYAOpItC1U1tDpfiLRDp4Qd4wL2iZYQj2cM
Nfvyjf/Uawp6M2uImUWnDU1LHB8CMAmKg+GIhnskoMwER1sqokr1lkpKBCpxo87R
04br4XeV0D0fMTnkgOaQxpHziPMSwQ==
-----END CERTIFICATE-----
