Certificate:
    Data:
        Version: 3 (0x2)
        Serial Number: 2 (0x2)
        Signature Algorithm: ecdsa-with-SHA256
        Issuer: C=US, O=CriblStudio, OU=Training, CN=Training Root CA
        Validity
            Not Before: Jun 11 22:54:18 2024 GMT
            Not After : Jun 11 22:54:18 2034 GMT
        Subject: C=US, O=CriblStudio, OU=Training, CN=Training Subordinate CA
        Subject Public Key Info:
            Public Key Algorithm: id-ecPublicKey
                Public-Key: (384 bit)
                pub:
                    04:61:98:d2:c8:39:fb:4b:ab:a6:48:43:67:19:1f:
                    91:f0:b6:96:6c:cd:bc:b5:bd:6c:1c:ad:a6:50:c0:
                    63:2d:bf:f3:b4:fb:e9:bc:be:a1:21:98:11:9f:c5:
                    cc:8c:dd:3d:cd:d4:52:b0:3f:30:0c:a5:08:e7:7c:
                    94:a5:7a:b5:5a:e8:ac:06:20:78:8d:01:9f:7d:25:
                    87:1c:c3:94:b6:aa:a5:fb:2d:ac:ef:f2:f2:66:4d:
                    88:da:98:5c:d8:1e:93
                ASN1 OID: secp384r1
                NIST CURVE: P-384
        X509v3 extensions:
            X509v3 Key Usage: critical
                Certificate Sign, CRL Sign
            X509v3 Basic Constraints: critical
                CA:TRUE, pathlen:0
            X509v3 Subject Key Identifier: 
                5B:3B:56:E5:83:57:26:83:F8:DE:AD:F4:93:A9:02:F3:55:2F:CA:67
            X509v3 Authority Key Identifier: 
                01:C0:92:0D:00:02:BC:CA:CD:09:C5:D0:F6:64:69:22:25:C0:58:7D
            Authority Information Access: 
                CA Issuers - URI:https://repo.cribl.studio/bootcamp/ca/root-ca.cer
            X509v3 CRL Distribution Points: 
                Full Name:
                  URI:https://repo.cribl.studio/bootcamp/ca/root-ca.crl
            X509v3 Extended Key Usage: 
                TLS Web Server Authentication, TLS Web Client Authentication
    Signature Algorithm: ecdsa-with-SHA256
    Signature Value:
        30:64:02:30:69:12:91:1e:c3:90:46:94:76:b3:61:e7:f8:fb:
        c1:50:20:51:f8:2f:76:48:53:e5:4a:3f:ec:78:f2:09:03:73:
        d7:4d:4b:ac:3a:58:da:d0:89:5d:d5:09:c0:14:33:7e:02:30:
        64:5b:dd:b5:b6:19:59:95:72:52:c3:ba:3b:62:46:03:e3:58:
        66:30:7e:8f:1d:6c:30:70:17:98:c7:bc:41:51:fb:e2:fe:b2:
        d8:c3:e9:11:cf:4f:6a:90:27:91:1a:5f
-----BEGIN CERTIFICATE-----
MIIC8DCCAnegAwIBAgIBAjAKBggqhkjOPQQDAjBRMQswCQYDVQQGEwJVUzEUMBIG
A1UECgwLQ3JpYmxTdHVkaW8xETAPBgNVBAsMCFRyYWluaW5nMRkwFwYDVQQDDBBU
cmFpbmluZyBSb290IENBMB4XDTI0MDYxMTIyNTQxOFoXDTM0MDYxMTIyNTQxOFow
WDELMAkGA1UEBhMCVVMxFDASBgNVBAoMC0NyaWJsU3R1ZGlvMREwDwYDVQQLDAhU
cmFpbmluZzEgMB4GA1UEAwwXVHJhaW5pbmcgU3Vib3JkaW5hdGUgQ0EwdjAQBgcq
hkjOPQIBBgUrgQQAIgNiAARhmNLIOftLq6ZIQ2cZH5HwtpZszby1vWwcraZQwGMt
v/O0++m8vqEhmBGfxcyM3T3N1FKwPzAMpQjnfJSlerVa6KwGIHiNAZ99JYccw5S2
qqX7Lazv8vJmTYjamFzYHpOjggEaMIIBFjAOBgNVHQ8BAf8EBAMCAQYwEgYDVR0T
AQH/BAgwBgEB/wIBADAdBgNVHQ4EFgQUWztW5YNXJoP43q30k6kC81UvymcwHwYD
VR0jBBgwFoAUAcCSDQACvMrNCcXQ9mRpIiXAWH0wTQYIKwYBBQUHAQEEQTA/MD0G
CCsGAQUFBzAChjFodHRwczovL3JlcG8uY3JpYmwuc3R1ZGlvL2Jvb3RjYW1wL2Nh
L3Jvb3QtY2EuY2VyMEIGA1UdHwQ7MDkwN6A1oDOGMWh0dHBzOi8vcmVwby5jcmli
bC5zdHVkaW8vYm9vdGNhbXAvY2Evcm9vdC1jYS5jcmwwHQYDVR0lBBYwFAYIKwYB
BQUHAwEGCCsGAQUFBwMCMAoGCCqGSM49BAMCA2cAMGQCMGkSkR7DkEaUdrNh5/j7
wVAgUfgvdkhT5Uo/7HjyCQNz101LrDpY2tCJXdUJwBQzfgIwZFvdtbYZWZVyUsO6
O2JGA+NYZjB+jx1sMHAXmMe8QVH74v6y2MPpEc9PapAnkRpf
-----END CERTIFICATE-----
Certificate:
    Data:
        Version: 3 (0x2)
        Serial Number: 1 (0x1)
        Signature Algorithm: ecdsa-with-SHA256
        Issuer: C=US, O=CriblStudio, OU=Training, CN=Training Root CA
        Validity
            Not Before: Jun 11 22:53:13 2024 GMT
            Not After : Jun 11 22:53:13 2034 GMT
        Subject: C=US, O=CriblStudio, OU=Training, CN=Training Root CA
        Subject Public Key Info:
            Public Key Algorithm: id-ecPublicKey
                Public-Key: (384 bit)
                pub:
                    04:27:73:c8:a3:54:9f:45:9a:e5:ff:d1:68:ea:52:
                    f4:af:b9:6a:e0:f7:48:2b:eb:6b:5d:df:82:89:ed:
                    28:69:a0:45:7b:83:51:34:b4:c2:2b:7f:14:8b:4f:
                    76:f0:48:69:8a:0d:af:e6:6d:63:f4:03:7c:13:5e:
                    47:e8:98:26:f1:f0:94:bc:a6:69:e8:f4:ef:d6:f0:
                    67:02:47:6a:4d:64:3e:50:2c:0d:f9:30:61:91:d0:
                    34:bf:42:7b:4a:03:01
                ASN1 OID: secp384r1
                NIST CURVE: P-384
        X509v3 extensions:
            X509v3 Key Usage: critical
                Certificate Sign, CRL Sign
            X509v3 Basic Constraints: critical
                CA:TRUE
            X509v3 Subject Key Identifier: 
                01:C0:92:0D:00:02:BC:CA:CD:09:C5:D0:F6:64:69:22:25:C0:58:7D
            X509v3 Authority Key Identifier: 
                01:C0:92:0D:00:02:BC:CA:CD:09:C5:D0:F6:64:69:22:25:C0:58:7D
            X509v3 Extended Key Usage: 
                TLS Web Server Authentication, TLS Web Client Authentication
    Signature Algorithm: ecdsa-with-SHA256
    Signature Value:
        30:66:02:31:00:97:34:72:65:d6:6c:35:bf:0b:d1:be:aa:0a:
        6f:80:c8:49:61:a9:65:7b:97:6f:8a:7f:4b:39:75:bb:b8:09:
        d5:01:9c:6c:1d:3e:d6:70:e9:48:8b:a4:2e:12:03:e1:3f:02:
        31:00:87:93:67:72:93:a9:02:6a:fe:48:99:84:93:7a:41:69:
        3b:61:e8:8b:7b:a2:e6:e0:3f:36:1e:1e:17:1c:13:65:e8:d2:
        f3:73:cf:fa:2e:69:71:83:5f:31:db:f8:08:b0
-----BEGIN CERTIFICATE-----
MIICUzCCAdigAwIBAgIBATAKBggqhkjOPQQDAjBRMQswCQYDVQQGEwJVUzEUMBIG
A1UECgwLQ3JpYmxTdHVkaW8xETAPBgNVBAsMCFRyYWluaW5nMRkwFwYDVQQDDBBU
cmFpbmluZyBSb290IENBMB4XDTI0MDYxMTIyNTMxM1oXDTM0MDYxMTIyNTMxM1ow
UTELMAkGA1UEBhMCVVMxFDASBgNVBAoMC0NyaWJsU3R1ZGlvMREwDwYDVQQLDAhU
cmFpbmluZzEZMBcGA1UEAwwQVHJhaW5pbmcgUm9vdCBDQTB2MBAGByqGSM49AgEG
BSuBBAAiA2IABCdzyKNUn0Wa5f/RaOpS9K+5auD3SCvra13fgontKGmgRXuDUTS0
wit/FItPdvBIaYoNr+ZtY/QDfBNeR+iYJvHwlLymaej079bwZwJHak1kPlAsDfkw
YZHQNL9Ce0oDAaOBgzCBgDAOBgNVHQ8BAf8EBAMCAQYwDwYDVR0TAQH/BAUwAwEB
/zAdBgNVHQ4EFgQUAcCSDQACvMrNCcXQ9mRpIiXAWH0wHwYDVR0jBBgwFoAUAcCS
DQACvMrNCcXQ9mRpIiXAWH0wHQYDVR0lBBYwFAYIKwYBBQUHAwEGCCsGAQUFBwMC
MAoGCCqGSM49BAMCA2kAMGYCMQCXNHJl1mw1vwvRvqoKb4DISWGpZXuXb4p/Szl1
u7gJ1QGcbB0+1nDpSIukLhID4T8CMQCHk2dyk6kCav5ImYSTekFpO2Hoi3ui5uA/
Nh4eFxwTZejS83PP+i5pcYNfMdv4CLA=
-----END CERTIFICATE-----
